; Function Attrs: mustprogress uwtable
define noundef zeroext i1 @_ZNK5boost9unit_test9framework17context_generator8is_emptyEv(ptr nocapture noundef nonnull readnone align 4 dereferenceable(4) %0) local_unnamed_addr #3 align 2 personality ptr @__gxx_personality_v0 {
  %2 = load atomic i8, ptr @_ZGVZN5boost9unit_test9framework4impl12_GLOBAL__N_111s_frk_stateEvE8the_inst acquire, align 8
  %3 = icmp eq i8 %2, 0
  br i1 %3, label %4, label %_ZN5boost9unit_test9framework4impl12_GLOBAL__N_111s_frk_stateEv.exit, !prof !3

4:                                                ; preds = %1
  %5 = tail call i32 @__cxa_guard_acquire(ptr nonnull @_ZGVZN5boost9unit_test9framework4impl12_GLOBAL__N_111s_frk_stateEvE8the_inst) #26
  %.not.i = icmp eq i32 %5, 0
  br i1 %.not.i, label %_ZN5boost9unit_test9framework4impl12_GLOBAL__N_111s_frk_stateEv.exit, label %6

6:                                                ; preds = %4
  invoke void @_ZN5boost9unit_test9framework5stateC2Ev(ptr noundef nonnull align 8 dereferenceable(360) @_ZZN5boost9unit_test9framework4impl12_GLOBAL__N_111s_frk_stateEvE8the_inst)
          to label %7 unwind label %9

7:                                                ; preds = %6
  %8 = tail call i32 @__cxa_atexit(ptr nonnull @_ZN5boost9unit_test9framework5stateD2Ev, ptr nonnull @_ZZN5boost9unit_test9framework4impl12_GLOBAL__N_111s_frk_stateEvE8the_inst, ptr nonnull @__dso_handle) #26
  tail call void @__cxa_guard_release(ptr nonnull @_ZGVZN5boost9unit_test9framework4impl12_GLOBAL__N_111s_frk_stateEvE8the_inst) #26
  br label %_ZN5boost9unit_test9framework4impl12_GLOBAL__N_111s_frk_stateEv.exit

9:                                                ; preds = %6
  %10 = landingpad { ptr, i32 }
          cleanup
  tail call void @__cxa_guard_abort(ptr nonnull @_ZGVZN5boost9unit_test9framework4impl12_GLOBAL__N_111s_frk_stateEvE8the_inst) #26
  resume { ptr, i32 } %10

_ZN5boost9unit_test9framework4impl12_GLOBAL__N_111s_frk_stateEv.exit: ; preds = %1, %4, %7
  %11 = load ptr, ptr getelementptr inbounds nuw (i8, ptr @_ZZN5boost9unit_test9framework4impl12_GLOBAL__N_111s_frk_stateEvE8the_inst, i64 160), align 8, !tbaa !16
  %12 = load ptr, ptr getelementptr inbounds nuw (i8, ptr @_ZZN5boost9unit_test9framework4impl12_GLOBAL__N_111s_frk_stateEvE8the_inst, i64 168), align 8, !tbaa !16
  %13 = icmp eq ptr %11, %12
  ret i1 %13
}